target datalayout = "e-m:e-p270:32:32-p271:32:32-p272:64:64-i64:64-i128:128-f80:128-n8:16:32:64-S128"
target triple = "x86_64-pc-linux-gnu"

@ull2string.digits = internal constant [201 x i8] c"00010203040506070809101112131415161718192021222324252627282930313233343536373839404142434445464748495051525354555657585960616263646566676869707172737475767778798081828384858687888990919293949596979899\00", align 16

; Function Attrs: nounwind uwtable
define dso_local i32 @digits10(i64 noundef %0) #0 {
  %2 = alloca i32, align 4
  %3 = alloca i64, align 8
  store i64 %0, ptr %3, align 8, !tbaa !29
  %4 = load i64, ptr %3, align 8, !tbaa !29
  %5 = icmp ult i64 %4, 10
  br i1 %5, label %6, label %7

6:                                                ; preds = %1
  store i32 1, ptr %2, align 4
  br label %56

7:                                                ; preds = %1
  %8 = load i64, ptr %3, align 8, !tbaa !29
  %9 = icmp ult i64 %8, 100
  br i1 %9, label %10, label %11

10:                                               ; preds = %7
  store i32 2, ptr %2, align 4
  br label %56

11:                                               ; preds = %7
  %12 = load i64, ptr %3, align 8, !tbaa !29
  %13 = icmp ult i64 %12, 1000
  br i1 %13, label %14, label %15

14:                                               ; preds = %11
  store i32 3, ptr %2, align 4
  br label %56

15:                                               ; preds = %11
  %16 = load i64, ptr %3, align 8, !tbaa !29
  %17 = icmp ult i64 %16, 1000000000000
  br i1 %17, label %18, label %51

18:                                               ; preds = %15
  %19 = load i64, ptr %3, align 8, !tbaa !29
  %20 = icmp ult i64 %19, 100000000
  br i1 %20, label %21, label %38

21:                                               ; preds = %18
  %22 = load i64, ptr %3, align 8, !tbaa !29
  %23 = icmp ult i64 %22, 1000000
  br i1 %23, label %24, label %33

24:                                               ; preds = %21
  %25 = load i64, ptr %3, align 8, !tbaa !29
  %26 = icmp ult i64 %25, 10000
  br i1 %26, label %27, label %28

27:                                               ; preds = %24
  store i32 4, ptr %2, align 4
  br label %56

28:                                               ; preds = %24
  %29 = load i64, ptr %3, align 8, !tbaa !29
  %30 = icmp uge i64 %29, 100000
  %31 = zext i1 %30 to i32
  %32 = add nsw i32 5, %31
  store i32 %32, ptr %2, align 4
  br label %56

33:                                               ; preds = %21
  %34 = load i64, ptr %3, align 8, !tbaa !29
  %35 = icmp uge i64 %34, 10000000
  %36 = zext i1 %35 to i32
  %37 = add nsw i32 7, %36
  store i32 %37, ptr %2, align 4
  br label %56

38:                                               ; preds = %18
  %39 = load i64, ptr %3, align 8, !tbaa !29
  %40 = icmp ult i64 %39, 10000000000
  br i1 %40, label %41, label %46

41:                                               ; preds = %38
  %42 = load i64, ptr %3, align 8, !tbaa !29
  %43 = icmp uge i64 %42, 1000000000
  %44 = zext i1 %43 to i32
  %45 = add nsw i32 9, %44
  store i32 %45, ptr %2, align 4
  br label %56

46:                                               ; preds = %38
  %47 = load i64, ptr %3, align 8, !tbaa !29
  %48 = icmp uge i64 %47, 100000000000
  %49 = zext i1 %48 to i32
  %50 = add nsw i32 11, %49
  store i32 %50, ptr %2, align 4
  br label %56

51:                                               ; preds = %15
  %52 = load i64, ptr %3, align 8, !tbaa !29
  %53 = udiv i64 %52, 1000000000000
  %54 = call i32 @digits10(i64 noundef %53)
  %55 = add i32 12, %54
  store i32 %55, ptr %2, align 4
  br label %56

56:                                               ; preds = %51, %46, %41, %33, %28, %27, %14, %10, %6
  %57 = load i32, ptr %2, align 4
  ret i32 %57
}

; Function Attrs: nounwind uwtable
define dso_local i32 @ull2string(ptr noundef %0, i64 noundef %1, i64 noundef %2) #0 {
  %4 = alloca i32, align 4
  %5 = alloca ptr, align 8
  %6 = alloca i64, align 8
  %7 = alloca i64, align 8
  %8 = alloca i32, align 4
  %9 = alloca i32, align 4
  %10 = alloca i32, align 4
  %11 = alloca i32, align 4
  %12 = alloca i32, align 4
  store ptr %0, ptr %5, align 8, !tbaa !5
  store i64 %1, ptr %6, align 8, !tbaa !29
  store i64 %2, ptr %7, align 8, !tbaa !31
  call void @llvm.lifetime.start.p0(i64 4, ptr %8) #13
  %13 = load i64, ptr %7, align 8, !tbaa !31
  %14 = call i32 @digits10(i64 noundef %13)
  store i32 %14, ptr %8, align 4, !tbaa !10
  %15 = load i32, ptr %8, align 4, !tbaa !10
  %16 = zext i32 %15 to i64
  %17 = load i64, ptr %6, align 8, !tbaa !29
  %18 = icmp uge i64 %16, %17
  br i1 %18, label %19, label %20

19:                                               ; preds = %3
  br label %94

20:                                               ; preds = %3
  %21 = load i32, ptr %8, align 4, !tbaa !10
  %22 = sub i32 %21, 1
  store i32 %22, ptr %9, align 4, !tbaa !10
  %23 = load ptr, ptr %5, align 8, !tbaa !5
  %24 = load i32, ptr %9, align 4, !tbaa !10
  %25 = add i32 %24, 1
  %26 = zext i32 %25 to i64
  %27 = getelementptr inbounds nuw i8, ptr %23, i64 %26
  store i8 0, ptr %27, align 1, !tbaa !12
  br label %28

28:                                               ; preds = %31, %20
  %29 = load i64, ptr %7, align 8, !tbaa !31
  %30 = icmp uge i64 %29, 100
  br i1 %30, label %31, label %58

31:                                               ; preds = %28
  call void @llvm.lifetime.start.p0(i64 4, ptr %10) #13
  %32 = load i64, ptr %7, align 8, !tbaa !31
  %33 = urem i64 %32, 100
  %34 = mul i64 %33, 2
  %35 = trunc i64 %34 to i32
  store i32 %35, ptr %10, align 4, !tbaa !10
  %36 = load i64, ptr %7, align 8, !tbaa !31
  %37 = udiv i64 %36, 100
  store i64 %37, ptr %7, align 8, !tbaa !31
  %38 = load i32, ptr %10, align 4, !tbaa !10
  %39 = add nsw i32 %38, 1
  %40 = sext i32 %39 to i64
  %41 = getelementptr inbounds [201 x i8], ptr @ull2string.digits, i64 0, i64 %40
  %42 = load i8, ptr %41, align 1, !tbaa !12
  %43 = load ptr, ptr %5, align 8, !tbaa !5
  %44 = load i32, ptr %9, align 4, !tbaa !10
  %45 = zext i32 %44 to i64
  %46 = getelementptr inbounds nuw i8, ptr %43, i64 %45
  store i8 %42, ptr %46, align 1, !tbaa !12
  %47 = load i32, ptr %10, align 4, !tbaa !10
  %48 = sext i32 %47 to i64
  %49 = getelementptr inbounds [201 x i8], ptr @ull2string.digits, i64 0, i64 %48
  %50 = load i8, ptr %49, align 1, !tbaa !12
  %51 = load ptr, ptr %5, align 8, !tbaa !5
  %52 = load i32, ptr %9, align 4, !tbaa !10
  %53 = sub i32 %52, 1
  %54 = zext i32 %53 to i64
  %55 = getelementptr inbounds nuw i8, ptr %51, i64 %54
  store i8 %50, ptr %55, align 1, !tbaa !12
  %56 = load i32, ptr %9, align 4, !tbaa !10
  %57 = sub i32 %56, 2
  store i32 %57, ptr %9, align 4, !tbaa !10
  call void @llvm.lifetime.end.p0(i64 4, ptr %10) #13
  br label %28, !llvm.loop !37

58:                                               ; preds = %28
  %59 = load i64, ptr %7, align 8, !tbaa !31
  %60 = icmp ult i64 %59, 10
  br i1 %60, label %61, label %70

61:                                               ; preds = %58
  %62 = load i64, ptr %7, align 8, !tbaa !31
  %63 = trunc i64 %62 to i32
  %64 = add i32 48, %63
  %65 = trunc i32 %64 to i8
  %66 = load ptr, ptr %5, align 8, !tbaa !5
  %67 = load i32, ptr %9, align 4, !tbaa !10
  %68 = zext i32 %67 to i64
  %69 = getelementptr inbounds nuw i8, ptr %66, i64 %68
  store i8 %65, ptr %69, align 1, !tbaa !12
  br label %92

70:                                               ; preds = %58
  call void @llvm.lifetime.start.p0(i64 4, ptr %11) #13
  %71 = load i64, ptr %7, align 8, !tbaa !31
  %72 = trunc i64 %71 to i32
  %73 = mul i32 %72, 2
  store i32 %73, ptr %11, align 4, !tbaa !10
  %74 = load i32, ptr %11, align 4, !tbaa !10
  %75 = add nsw i32 %74, 1
  %76 = sext i32 %75 to i64
  %77 = getelementptr inbounds [201 x i8], ptr @ull2string.digits, i64 0, i64 %76
  %78 = load i8, ptr %77, align 1, !tbaa !12
  %79 = load ptr, ptr %5, align 8, !tbaa !5
  %80 = load i32, ptr %9, align 4, !tbaa !10
  %81 = zext i32 %80 to i64
  %82 = getelementptr inbounds nuw i8, ptr %79, i64 %81
  store i8 %78, ptr %82, align 1, !tbaa !12
  %83 = load i32, ptr %11, align 4, !tbaa !10
  %84 = sext i32 %83 to i64
  %85 = getelementptr inbounds [201 x i8], ptr @ull2string.digits, i64 0, i64 %84
  %86 = load i8, ptr %85, align 1, !tbaa !12
  %87 = load ptr, ptr %5, align 8, !tbaa !5
  %88 = load i32, ptr %9, align 4, !tbaa !10
  %89 = sub i32 %88, 1
  %90 = zext i32 %89 to i64
  %91 = getelementptr inbounds nuw i8, ptr %87, i64 %90
  store i8 %86, ptr %91, align 1, !tbaa !12
  call void @llvm.lifetime.end.p0(i64 4, ptr %11) #13
  br label %92

92:                                               ; preds = %70, %61
  %93 = load i32, ptr %8, align 4, !tbaa !10
  store i32 %93, ptr %4, align 4
  store i32 1, ptr %12, align 4
  br label %101

94:                                               ; preds = %19
  %95 = load i64, ptr %6, align 8, !tbaa !29
  %96 = icmp ugt i64 %95, 0
  br i1 %96, label %97, label %100

97:                                               ; preds = %94
  %98 = load ptr, ptr %5, align 8, !tbaa !5
  %99 = getelementptr inbounds i8, ptr %98, i64 0
  store i8 0, ptr %99, align 1, !tbaa !12
  br label %100

100:                                              ; preds = %97, %94
  store i32 0, ptr %4, align 4
  store i32 1, ptr %12, align 4
  br label %101

101:                                              ; preds = %100, %92
  call void @llvm.lifetime.end.p0(i64 4, ptr %8) #13
  %102 = load i32, ptr %4, align 4
  ret i32 %102
}