; Function Attrs: nofree norecurse nosync nounwind memory(argmem: write) uwtable
define dso_local i32 @ull2string(ptr noundef writeonly captures(none) %0, i64 noundef %1, i64 noundef %2) local_unnamed_addr #14 {
  %4 = icmp ult i64 %2, 10
  br i1 %4, label %digits10.exit, label %.lr.ph.i

.lr.ph.i:                                         ; preds = %3, %tailrecurse.i
  %.tr19.i = phi i64 [ %30, %tailrecurse.i ], [ %2, %3 ]
  %accumulator.tr18.i = phi i32 [ %31, %tailrecurse.i ], [ 0, %3 ]
  %5 = icmp ult i64 %.tr19.i, 100
  br i1 %5, label %digits10.exit, label %6

6:                                                ; preds = %.lr.ph.i
  %7 = icmp ult i64 %.tr19.i, 1000
  br i1 %7, label %digits10.exit, label %8

8:                                                ; preds = %6
  %9 = icmp ult i64 %.tr19.i, 1000000000000
  br i1 %9, label %10, label %tailrecurse.i

10:                                               ; preds = %8
  %11 = icmp samesign ult i64 %.tr19.i, 100000000
  br i1 %11, label %12, label %22

12:                                               ; preds = %10
  %13 = icmp samesign ult i64 %.tr19.i, 1000000
  br i1 %13, label %14, label %19

14:                                               ; preds = %12
  %15 = icmp samesign ult i64 %.tr19.i, 10000
  br i1 %15, label %digits10.exit, label %16

16:                                               ; preds = %14
  %17 = icmp samesign ugt i64 %.tr19.i, 99999
  %18 = select i1 %17, i32 6, i32 5
  br label %digits10.exit

19:                                               ; preds = %12
  %20 = icmp samesign ugt i64 %.tr19.i, 9999999
  %21 = select i1 %20, i32 8, i32 7
  br label %digits10.exit

22:                                               ; preds = %10
  %23 = icmp samesign ult i64 %.tr19.i, 10000000000
  br i1 %23, label %24, label %27

24:                                               ; preds = %22
  %25 = icmp samesign ugt i64 %.tr19.i, 999999999
  %26 = select i1 %25, i32 10, i32 9
  br label %digits10.exit

27:                                               ; preds = %22
  %28 = icmp samesign ugt i64 %.tr19.i, 99999999999
  %29 = select i1 %28, i32 12, i32 11
  br label %digits10.exit

tailrecurse.i:                                    ; preds = %8
  %30 = udiv i64 %.tr19.i, 1000000000000
  %31 = add i32 %accumulator.tr18.i, 12
  %32 = icmp ult i64 %.tr19.i, 10000000000000
  br i1 %32, label %digits10.exit, label %.lr.ph.i

digits10.exit:                                    ; preds = %.lr.ph.i, %6, %tailrecurse.i, %3, %14, %16, %19, %24, %27
  %accumulator.tr17.i = phi i32 [ %accumulator.tr18.i, %16 ], [ %accumulator.tr18.i, %19 ], [ %accumulator.tr18.i, %24 ], [ %accumulator.tr18.i, %27 ], [ %accumulator.tr18.i, %14 ], [ 0, %3 ], [ %accumulator.tr18.i, %6 ], [ %accumulator.tr18.i, %.lr.ph.i ], [ %31, %tailrecurse.i ]
  %.0.i = phi i32 [ %18, %16 ], [ %21, %19 ], [ %26, %24 ], [ %29, %27 ], [ 4, %14 ], [ 1, %3 ], [ 3, %6 ], [ 2, %.lr.ph.i ], [ 1, %tailrecurse.i ]
  %accumulator.ret.tr.i = add i32 %.0.i, %accumulator.tr17.i
  %33 = zext i32 %accumulator.ret.tr.i to i64
  %.not = icmp ugt i64 %1, %33
  br i1 %.not, label %34, label %76

34:                                               ; preds = %digits10.exit
  %35 = add i32 %accumulator.ret.tr.i, -1
  %36 = getelementptr inbounds nuw i8, ptr %0, i64 %33
  store i8 0, ptr %36, align 1, !tbaa !9
  %37 = icmp ugt i64 %2, 99
  br i1 %37, label %.lr.ph, label %._crit_edge

.lr.ph:                                           ; preds = %34, %.lr.ph
  %.03038 = phi i64 [ %40, %.lr.ph ], [ %2, %34 ]
  %.03137 = phi i32 [ %53, %.lr.ph ], [ %35, %34 ]
  %38 = urem i64 %.03038, 100
  %.tr = trunc nuw nsw i64 %38 to i32
  %39 = shl nuw nsw i32 %.tr, 1
  %40 = udiv i64 %.03038, 100
  %41 = or disjoint i32 %39, 1
  %42 = zext nneg i32 %41 to i64
  %43 = getelementptr inbounds nuw [201 x i8], ptr @fixedpoint_d2string.digitsd, i64 0, i64 %42
  %44 = load i8, ptr %43, align 1, !tbaa !9
  %45 = zext i32 %.03137 to i64
  %46 = getelementptr inbounds nuw i8, ptr %0, i64 %45
  store i8 %44, ptr %46, align 1, !tbaa !9
  %47 = zext nneg i32 %39 to i64
  %48 = getelementptr inbounds nuw [201 x i8], ptr @fixedpoint_d2string.digitsd, i64 0, i64 %47
  %49 = load i8, ptr %48, align 2, !tbaa !9
  %50 = add i32 %.03137, -1
  %51 = zext i32 %50 to i64
  %52 = getelementptr inbounds nuw i8, ptr %0, i64 %51
  store i8 %49, ptr %52, align 1, !tbaa !9
  %53 = add i32 %.03137, -2
  %54 = icmp ugt i64 %.03038, 9999
  br i1 %54, label %.lr.ph, label %._crit_edge, !llvm.loop !33

._crit_edge:                                      ; preds = %.lr.ph, %34
  %.031.lcssa = phi i32 [ %35, %34 ], [ %53, %.lr.ph ]
  %.030.lcssa = phi i64 [ %2, %34 ], [ %40, %.lr.ph ]
  %55 = icmp samesign ult i64 %.030.lcssa, 10
  br i1 %55, label %56, label %61

56:                                               ; preds = %._crit_edge
  %57 = trunc nuw i64 %.030.lcssa to i8
  %58 = or disjoint i8 %57, 48
  %59 = zext i32 %.031.lcssa to i64
  %60 = getelementptr inbounds nuw i8, ptr %0, i64 %59
  store i8 %58, ptr %60, align 1, !tbaa !9
  br label %78

61:                                               ; preds = %._crit_edge
  %62 = trunc nuw nsw i64 %.030.lcssa to i32
  %63 = shl nuw nsw i32 %62, 1
  %64 = or disjoint i32 %63, 1
  %65 = zext nneg i32 %64 to i64
  %66 = getelementptr inbounds nuw [201 x i8], ptr @fixedpoint_d2string.digitsd, i64 0, i64 %65
  %67 = load i8, ptr %66, align 1, !tbaa !9
  %68 = zext i32 %.031.lcssa to i64
  %69 = getelementptr inbounds nuw i8, ptr %0, i64 %68
  store i8 %67, ptr %69, align 1, !tbaa !9
  %70 = zext nneg i32 %63 to i64
  %71 = getelementptr inbounds nuw [201 x i8], ptr @fixedpoint_d2string.digitsd, i64 0, i64 %70
  %72 = load i8, ptr %71, align 2, !tbaa !9
  %73 = add i32 %.031.lcssa, -1
  %74 = zext i32 %73 to i64
  %75 = getelementptr inbounds nuw i8, ptr %0, i64 %74
  store i8 %72, ptr %75, align 1, !tbaa !9
  br label %78

76:                                               ; preds = %digits10.exit
  %.not34 = icmp eq i64 %1, 0
  br i1 %.not34, label %78, label %77

77:                                               ; preds = %76
  store i8 0, ptr %0, align 1, !tbaa !9
  br label %78

78:                                               ; preds = %76, %77, %56, %61
  %.0 = phi i32 [ %accumulator.ret.tr.i, %61 ], [ %accumulator.ret.tr.i, %56 ], [ 0, %77 ], [ 0, %76 ]
  ret i32 %.0
}